target datalayout = "e-m:e-p270:32:32-p271:32:32-p272:64:64-i64:64-i128:128-f80:128-n8:16:32:64-S128"
target triple = "x86_64-pc-linux-gnu"

%"class.lean::type_checker::state" = type { %"class.lean::environment", %"class.lean::name_generator", [2 x %"class.std::unordered_map"], %"class.std::unordered_map", %"class.std::unordered_map", %"class.lean::equiv_manager", %"class.std::unordered_set" }
%"class.lean::environment" = type { %"class.lean::object_ref" }
%"class.lean::object_ref" = type { ptr }
%"class.lean::name_generator" = type <{ %"class.lean::name", i32, [4 x i8] }>
%"class.lean::name" = type { %"class.lean::object_ref" }
%"class.std::unordered_map" = type { %"class.std::_Hashtable" }
%"class.std::_Hashtable" = type { ptr, i64, %"struct.std::__detail::_Hash_node_base", i64, %"struct.std::__detail::_Prime_rehash_policy", ptr }
%"struct.std::__detail::_Hash_node_base" = type { ptr }
%"struct.std::__detail::_Prime_rehash_policy" = type { float, i64 }
%"class.lean::equiv_manager" = type <{ %"class.std::vector", %"class.std::unordered_map.5", i8, [7 x i8] }>
%"class.std::vector" = type { %"struct.std::_Vector_base" }
%"struct.std::_Vector_base" = type { %"struct.std::_Vector_base<lean::equiv_manager::node, std::allocator<lean::equiv_manager::node>>::_Vector_impl" }
%"struct.std::_Vector_base<lean::equiv_manager::node, std::allocator<lean::equiv_manager::node>>::_Vector_impl" = type { %"struct.std::_Vector_base<lean::equiv_manager::node, std::allocator<lean::equiv_manager::node>>::_Vector_impl_data" }
%"struct.std::_Vector_base<lean::equiv_manager::node, std::allocator<lean::equiv_manager::node>>::_Vector_impl_data" = type { ptr, ptr, ptr }
%"class.std::unordered_map.5" = type { %"class.std::_Hashtable.6" }
%"class.std::_Hashtable.6" = type { ptr, i64, %"struct.std::__detail::_Hash_node_base", i64, %"struct.std::__detail::_Prime_rehash_policy", ptr }
%"class.std::unordered_set" = type { %"class.std::_Hashtable.19" }
%"class.std::_Hashtable.19" = type { ptr, i64, %"struct.std::__detail::_Hash_node_base", i64, %"struct.std::__detail::_Prime_rehash_policy", ptr }
%"class.lean::type_checker" = type { i8, ptr, ptr, %"class.lean::local_ctx", i32, ptr }
%"class.lean::local_ctx" = type { %"class.lean::object_ref" }

; Function Attrs: mustprogress uwtable
define hidden noundef zeroext i1 @_ZN4lean12type_checker9is_def_eqERKNS_4exprES3_(ptr noundef nonnull align 8 dereferenceable(48) %0, ptr noundef nonnull align 8 dereferenceable(8) %1, ptr noundef nonnull align 8 dereferenceable(8) %2) #0 align 2 {
  %4 = alloca ptr, align 8
  %5 = alloca ptr, align 8
  %6 = alloca ptr, align 8
  %7 = alloca i8, align 1
  store ptr %0, ptr %4, align 8, !tbaa !37
  store ptr %1, ptr %5, align 8, !tbaa !39
  store ptr %2, ptr %6, align 8, !tbaa !39
  %8 = load ptr, ptr %4, align 8
  call void @llvm.lifetime.start.p0(i64 1, ptr %7) #16
  %9 = load ptr, ptr %5, align 8, !tbaa !39
  %10 = load ptr, ptr %6, align 8, !tbaa !39
  %11 = call noundef zeroext i1 @_ZN4lean12type_checker14is_def_eq_coreERKNS_4exprES3_(ptr noundef nonnull align 8 dereferenceable(48) %8, ptr noundef nonnull align 8 dereferenceable(8) %9, ptr noundef nonnull align 8 dereferenceable(8) %10)
  %12 = zext i1 %11 to i8
  store i8 %12, ptr %7, align 1, !tbaa !79
  %13 = load i8, ptr %7, align 1, !tbaa !79, !range !65, !noundef !66
  %14 = trunc i8 %13 to i1
  br i1 %14, label %15, label %21

15:                                               ; preds = %3
  %16 = getelementptr inbounds nuw %"class.lean::type_checker", ptr %8, i32 0, i32 1
  %17 = load ptr, ptr %16, align 8, !tbaa !41
  %18 = getelementptr inbounds nuw %"class.lean::type_checker::state", ptr %17, i32 0, i32 5
  %19 = load ptr, ptr %5, align 8, !tbaa !39
  %20 = load ptr, ptr %6, align 8, !tbaa !39
  call void @_ZN4lean13equiv_manager9add_equivERKNS_4exprES3_(ptr noundef nonnull align 8 dereferenceable(81) %18, ptr noundef nonnull align 8 dereferenceable(8) %19, ptr noundef nonnull align 8 dereferenceable(8) %20)
  br label %21

21:                                               ; preds = %15, %3
  %22 = load i8, ptr %7, align 1, !tbaa !79, !range !65, !noundef !66
  %23 = trunc i8 %22 to i1
  call void @llvm.lifetime.end.p0(i64 1, ptr %7) #16
  ret i1 %23
}