; Function Attrs: mustprogress uwtable
define hidden noundef zeroext i1 @_ZN4lean12type_checker9is_def_eqERKNS_4exprES3_(ptr noundef nonnull align 8 dereferenceable(48) %0, ptr noundef nonnull align 8 dereferenceable(8) %1, ptr noundef nonnull align 8 dereferenceable(8) %2) local_unnamed_addr #0 align 2 {
  %4 = tail call noundef zeroext i1 @_ZN4lean12type_checker14is_def_eq_coreERKNS_4exprES3_(ptr noundef nonnull align 8 dereferenceable(48) %0, ptr noundef nonnull align 8 dereferenceable(8) %1, ptr noundef nonnull align 8 dereferenceable(8) %2)
  br i1 %4, label %5, label %9

5:                                                ; preds = %3
  %6 = getelementptr inbounds nuw i8, ptr %0, i64 8
  %7 = load ptr, ptr %6, align 8, !tbaa !31
  %8 = getelementptr inbounds nuw i8, ptr %7, i64 248
  tail call void @_ZN4lean13equiv_manager9add_equivERKNS_4exprES3_(ptr noundef nonnull align 8 dereferenceable(81) %8, ptr noundef nonnull align 8 dereferenceable(8) %1, ptr noundef nonnull align 8 dereferenceable(8) %2)
  br label %9

9:                                                ; preds = %5, %3
  ret i1 %4
}